; Function Attrs: mustprogress nounwind uwtable
define void @_ZN19OpenColorIO_v2_5dev16GpuShaderCreator11setUniqueIDEPKc(ptr noundef nonnull readonly align 8 captures(none) dereferenceable(16) %0, ptr noundef %1) local_unnamed_addr #3 align 2 personality ptr @__gxx_personality_v0 {
  %3 = getelementptr inbounds nuw i8, ptr %0, i64 8
  %4 = load ptr, ptr %3, align 8, !tbaa !6
  %5 = getelementptr inbounds nuw i8, ptr %4, i64 176
  %6 = tail call noundef i32 @pthread_mutex_lock(ptr noundef nonnull align 8 dereferenceable(40) %5) #26
  %.not.i.i = icmp eq i32 %6, 0
  br i1 %.not.i.i, label %_ZNSt10lock_guardISt5mutexEC2ERS0_.exit, label %7

7:                                                ; preds = %2
  invoke void @_ZSt20__throw_system_errori(i32 noundef %6) #28
          to label %.noexc unwind label %19

.noexc:                                           ; preds = %7
  unreachable

_ZNSt10lock_guardISt5mutexEC2ERS0_.exit:          ; preds = %2
  %.not = icmp eq ptr %1, null
  %8 = select i1 %.not, ptr @.str, ptr %1
  %9 = load ptr, ptr %3, align 8, !tbaa !6
  %10 = getelementptr inbounds nuw i8, ptr %9, i64 8
  %11 = load i64, ptr %10, align 8, !tbaa !14
  %12 = tail call noundef i64 @strlen(ptr noundef nonnull dereferenceable(1) %8) #26
  %13 = invoke noundef nonnull align 8 dereferenceable(32) ptr @_ZNSt7__cxx1112basic_stringIcSt11char_traitsIcESaIcEE10_M_replaceEmmPKcm(ptr noundef nonnull align 8 dereferenceable(32) %9, i64 noundef 0, i64 noundef %11, ptr noundef nonnull %8, i64 noundef %12)
          to label %_ZNSt7__cxx1112basic_stringIcSt11char_traitsIcESaIcEEaSEPKc.exit unwind label %19

_ZNSt7__cxx1112basic_stringIcSt11char_traitsIcESaIcEEaSEPKc.exit: ; preds = %_ZNSt10lock_guardISt5mutexEC2ERS0_.exit
  %14 = load ptr, ptr %3, align 8, !tbaa !6
  %15 = getelementptr inbounds nuw i8, ptr %14, i64 144
  %16 = getelementptr inbounds nuw i8, ptr %14, i64 152
  store i64 0, ptr %16, align 8, !tbaa !14
  %17 = load ptr, ptr %15, align 8, !tbaa !37
  store i8 0, ptr %17, align 1, !tbaa !17
  %18 = tail call noundef i32 @pthread_mutex_unlock(ptr noundef nonnull align 8 dereferenceable(40) %5) #26
  ret void

19:                                               ; preds = %_ZNSt10lock_guardISt5mutexEC2ERS0_.exit, %7
  %20 = landingpad { ptr, i32 }
          catch ptr null
  %21 = extractvalue { ptr, i32 } %20, 0
  tail call void @__clang_call_terminate(ptr %21) #27
  unreachable
}